; Function Attrs: mustprogress nounwind uwtable
define internal noundef i32 @_ZN12_GLOBAL__N_125MicrosoftNumberingContext17getManglingNumberEPKN5clang9BlockDeclE(ptr noundef nonnull align 8 dereferenceable(52) %0, ptr nocapture readnone %1) unnamed_addr #0 align 2 {
  %3 = alloca ptr, align 8
  store ptr null, ptr %3, align 8
  %4 = getelementptr inbounds nuw i8, ptr %0, i64 16
  %5 = load ptr, ptr %4, align 8
  %6 = getelementptr inbounds i8, ptr %0, i64 32
  %7 = load i32, ptr %6, align 8
  %8 = icmp eq i32 %7, 0
  br i1 %8, label %_ZN4llvm12DenseMapBaseINS_8DenseMapIPKN5clang4TypeEjNS_12DenseMapInfoIS5_vEENS_6detail12DenseMapPairIS5_jEEEES5_jS7_SA_E15LookupBucketForIS5_EEbRKT_RPSA_.exit.i.i, label %9

9:                                                ; preds = %2
  %10 = add i32 %7, -1
  %11 = load ptr, ptr %5, align 8
  %12 = icmp eq ptr %11, null
  br i1 %12, label %_ZN4llvm12DenseMapBaseINS_8DenseMapIPKN5clang4TypeEjNS_12DenseMapInfoIS5_vEENS_6detail12DenseMapPairIS5_jEEEES5_jS7_SA_EixERKS5_.exit, label %.lr.ph.i.i.i.i

.lr.ph.i.i.i.i:                                   ; preds = %9, %18
  %13 = phi ptr [ %25, %18 ], [ %11, %9 ]
  %14 = phi ptr [ %24, %18 ], [ %5, %9 ]
  %.02736.i.i.i.i = phi i32 [ %.027.i.i.i.i, %18 ], [ 0, %9 ]
  %.02635.i.i.i.i = phi i32 [ %21, %18 ], [ 1, %9 ]
  %.02834.i.i.i.i = phi ptr [ %spec.select.i.i.i.i, %18 ], [ null, %9 ]
  %15 = icmp eq ptr %13, inttoptr (i64 -4096 to ptr)
  br i1 %15, label %16, label %18

16:                                               ; preds = %.lr.ph.i.i.i.i
  %.not.i.i.i.i = icmp eq ptr %.02834.i.i.i.i, null
  %17 = select i1 %.not.i.i.i.i, ptr %14, ptr %.02834.i.i.i.i
  br label %_ZN4llvm12DenseMapBaseINS_8DenseMapIPKN5clang4TypeEjNS_12DenseMapInfoIS5_vEENS_6detail12DenseMapPairIS5_jEEEES5_jS7_SA_E15LookupBucketForIS5_EEbRKT_RPSA_.exit.i.i

18:                                               ; preds = %.lr.ph.i.i.i.i
  %19 = icmp eq ptr %13, inttoptr (i64 -8192 to ptr)
  %20 = icmp eq ptr %.02834.i.i.i.i, null
  %or.cond.not.i.i.i.i = select i1 %19, i1 %20, i1 false
  %spec.select.i.i.i.i = select i1 %or.cond.not.i.i.i.i, ptr %14, ptr %.02834.i.i.i.i
  %21 = add i32 %.02635.i.i.i.i, 1
  %22 = add i32 %.02635.i.i.i.i, %.02736.i.i.i.i
  %.027.i.i.i.i = and i32 %22, %10
  %23 = zext i32 %.027.i.i.i.i to i64
  %24 = getelementptr inbounds %"struct.llvm::detail::DenseMapPair.519", ptr %5, i64 %23
  %25 = load ptr, ptr %24, align 8
  %26 = icmp eq ptr %25, null
  br i1 %26, label %_ZN4llvm12DenseMapBaseINS_8DenseMapIPKN5clang4TypeEjNS_12DenseMapInfoIS5_vEENS_6detail12DenseMapPairIS5_jEEEES5_jS7_SA_EixERKS5_.exit, label %.lr.ph.i.i.i.i, !llvm.loop !27

_ZN4llvm12DenseMapBaseINS_8DenseMapIPKN5clang4TypeEjNS_12DenseMapInfoIS5_vEENS_6detail12DenseMapPairIS5_jEEEES5_jS7_SA_E15LookupBucketForIS5_EEbRKT_RPSA_.exit.i.i: ; preds = %16, %2
  %.sink.i.i.i.i = phi ptr [ %17, %16 ], [ null, %2 ]
  %27 = call noundef ptr @_ZN4llvm12DenseMapBaseINS_8DenseMapIPKN5clang4TypeEjNS_12DenseMapInfoIS5_vEENS_6detail12DenseMapPairIS5_jEEEES5_jS7_SA_E20InsertIntoBucketImplIS5_EEPSA_RKS5_RKT_SE_(ptr noundef nonnull align 1 dereferenceable(1) %4, ptr noundef nonnull align 8 dereferenceable(8) %3, ptr noundef nonnull align 8 dereferenceable(8) %3, ptr noundef %.sink.i.i.i.i)
  %28 = load ptr, ptr %3, align 8
  store ptr %28, ptr %27, align 8
  %29 = getelementptr inbounds nuw i8, ptr %27, i64 8
  store i32 0, ptr %29, align 4
  br label %_ZN4llvm12DenseMapBaseINS_8DenseMapIPKN5clang4TypeEjNS_12DenseMapInfoIS5_vEENS_6detail12DenseMapPairIS5_jEEEES5_jS7_SA_EixERKS5_.exit

_ZN4llvm12DenseMapBaseINS_8DenseMapIPKN5clang4TypeEjNS_12DenseMapInfoIS5_vEENS_6detail12DenseMapPairIS5_jEEEES5_jS7_SA_EixERKS5_.exit: ; preds = %18, %9, %_ZN4llvm12DenseMapBaseINS_8DenseMapIPKN5clang4TypeEjNS_12DenseMapInfoIS5_vEENS_6detail12DenseMapPairIS5_jEEEES5_jS7_SA_E15LookupBucketForIS5_EEbRKT_RPSA_.exit.i.i
  %.0.i.i = phi ptr [ %27, %_ZN4llvm12DenseMapBaseINS_8DenseMapIPKN5clang4TypeEjNS_12DenseMapInfoIS5_vEENS_6detail12DenseMapPairIS5_jEEEES5_jS7_SA_E15LookupBucketForIS5_EEbRKT_RPSA_.exit.i.i ], [ %5, %9 ], [ %24, %18 ]
  %30 = getelementptr inbounds nuw i8, ptr %.0.i.i, i64 8
  %31 = load i32, ptr %30, align 4
  %32 = add i32 %31, 1
  store i32 %32, ptr %30, align 4
  ret i32 %32
}